; Function Attrs: mustprogress nofree norecurse nosync nounwind willreturn memory(read, inaccessiblemem: none) uwtable
define noundef i32 @_ZNK6icu_7717RuleBasedTimeZone20countTransitionRulesER10UErrorCode(ptr noundef nonnull readonly align 8 captures(none) dereferenceable(105) %0, ptr nonnull readnone align 4 captures(none) %1) unnamed_addr #11 align 2 {
  %3 = getelementptr inbounds nuw i8, ptr %0, i64 80
  %4 = load ptr, ptr %3, align 8, !tbaa !19
  %.not = icmp eq ptr %4, null
  br i1 %.not, label %8, label %5

5:                                                ; preds = %2
  %6 = getelementptr inbounds nuw i8, ptr %4, i64 8
  %7 = load i32, ptr %6, align 8, !tbaa !23
  br label %8

8:                                                ; preds = %5, %2
  %.0 = phi i32 [ %7, %5 ], [ 0, %2 ]
  %9 = getelementptr inbounds nuw i8, ptr %0, i64 88
  %10 = load ptr, ptr %9, align 8, !tbaa !20
  %.not5 = icmp eq ptr %10, null
  br i1 %.not5, label %15, label %11

11:                                               ; preds = %8
  %12 = getelementptr inbounds nuw i8, ptr %10, i64 8
  %13 = load i32, ptr %12, align 8, !tbaa !23
  %14 = add nsw i32 %13, %.0
  br label %15

15:                                               ; preds = %11, %8
  %.1 = phi i32 [ %14, %11 ], [ %.0, %8 ]
  ret i32 %.1
}